; Function Attrs: mustprogress nounwind uwtable
define hidden void @_ZN5clang7targets24RenderScript64TargetInfoC2ERKN4llvm6TripleERKNS_13TargetOptionsE(ptr noundef nonnull align 8 dereferenceable(600) %0, ptr noundef nonnull align 8 dereferenceable(56) %1, ptr noundef nonnull readonly align 8 captures(none) dereferenceable(536) %2) unnamed_addr #1 align 2 {
  %4 = alloca %"class.llvm::Triple", align 8
  %5 = alloca %"class.llvm::Twine", align 8
  %6 = alloca %"class.llvm::Twine", align 8
  %7 = alloca %"class.llvm::Twine", align 8
  %8 = alloca %"class.llvm::Twine", align 8
  %9 = getelementptr inbounds nuw i8, ptr %5, i64 32
  %10 = getelementptr inbounds nuw i8, ptr %5, i64 33
  store i8 1, ptr %10, align 1
  store ptr @.str.125, ptr %5, align 8
  store i8 3, ptr %9, align 8
  %11 = tail call { ptr, i64 } @_ZNK4llvm6Triple13getVendorNameEv(ptr noundef nonnull align 8 dereferenceable(56) %1) #23
  %12 = extractvalue { ptr, i64 } %11, 0
  %13 = extractvalue { ptr, i64 } %11, 1
  %14 = getelementptr inbounds nuw i8, ptr %6, i64 32
  store i8 5, ptr %14, align 8
  %15 = getelementptr inbounds nuw i8, ptr %6, i64 33
  store i8 1, ptr %15, align 1
  store ptr %12, ptr %6, align 8
  %16 = getelementptr inbounds nuw i8, ptr %6, i64 8
  store i64 %13, ptr %16, align 8
  %17 = tail call { ptr, i64 } @_ZNK4llvm6Triple9getOSNameEv(ptr noundef nonnull align 8 dereferenceable(56) %1) #23
  %18 = extractvalue { ptr, i64 } %17, 0
  %19 = extractvalue { ptr, i64 } %17, 1
  %20 = getelementptr inbounds nuw i8, ptr %7, i64 32
  store i8 5, ptr %20, align 8
  %21 = getelementptr inbounds nuw i8, ptr %7, i64 33
  store i8 1, ptr %21, align 1
  store ptr %18, ptr %7, align 8
  %22 = getelementptr inbounds nuw i8, ptr %7, i64 8
  store i64 %19, ptr %22, align 8
  %23 = tail call { ptr, i64 } @_ZNK4llvm6Triple18getEnvironmentNameEv(ptr noundef nonnull align 8 dereferenceable(56) %1) #23
  %24 = extractvalue { ptr, i64 } %23, 0
  %25 = extractvalue { ptr, i64 } %23, 1
  %26 = getelementptr inbounds nuw i8, ptr %8, i64 32
  store i8 5, ptr %26, align 8
  %27 = getelementptr inbounds nuw i8, ptr %8, i64 33
  store i8 1, ptr %27, align 1
  store ptr %24, ptr %8, align 8
  %28 = getelementptr inbounds nuw i8, ptr %8, i64 8
  store i64 %25, ptr %28, align 8
  call void @_ZN4llvm6TripleC1ERKNS_5TwineES3_S3_S3_(ptr noundef nonnull align 8 dereferenceable(56) %4, ptr noundef nonnull align 8 dereferenceable(34) %5, ptr noundef nonnull align 8 dereferenceable(34) %6, ptr noundef nonnull align 8 dereferenceable(34) %7, ptr noundef nonnull align 8 dereferenceable(34) %8) #23
  call void @_ZN5clang7targets17AArch64TargetInfoC2ERKN4llvm6TripleERKNS_13TargetOptionsE(ptr noundef nonnull align 8 dereferenceable(600) %0, ptr noundef nonnull align 8 dereferenceable(56) %4, ptr noundef nonnull readonly align 8 dereferenceable(536) %2)
  store ptr getelementptr inbounds nuw inrange(-16, 976) (i8, ptr @_ZTVN5clang7targets19AArch64leTargetInfoE, i64 16), ptr %0, align 8
  call void @_ZNSt7__cxx1112basic_stringIcSt11char_traitsIcESaIcEED1Ev(ptr noundef nonnull align 8 dereferenceable(56) %4) #23
  store ptr getelementptr inbounds nuw inrange(-16, 976) (i8, ptr @_ZTVN5clang7targets24RenderScript64TargetInfoE, i64 16), ptr %0, align 8
  %29 = getelementptr inbounds nuw i8, ptr %0, i64 384
  %30 = load i32, ptr %29, align 8
  %31 = or i32 %30, 512
  store i32 %31, ptr %29, align 8
  ret void
}